target datalayout = "e-m:e-p270:32:32-p271:32:32-p272:64:64-i64:64-i128:128-f80:128-n8:16:32:64-S128"
target triple = "x86_64-unknown-linux-gnu"

%"class.cvc5::internal::theory::arith::linear::RaiseConflict" = type { ptr }
%"class.cvc5::internal::theory::arith::linear::TempVarMalloc" = type { %"class.cvc5::internal::theory::arith::linear::ArithVarMalloc", ptr }
%"class.cvc5::internal::theory::arith::linear::ArithVarMalloc" = type { ptr }
%"class.cvc5::internal::theory::arith::linear::FCSimplexDecisionProcedure" = type { %"class.cvc5::internal::theory::arith::linear::SimplexDecisionProcedure", %"class.cvc5::internal::DenseMultiset", i32, i32, %"class.cvc5::internal::DenseMap.5", i32, i32, i32, %"class.cvc5::internal::DenseMap.4", %"class.std::vector", %"class.cvc5::internal::theory::arith::linear::FCSimplexDecisionProcedure::Statistics" }
%"class.cvc5::internal::theory::arith::linear::SimplexDecisionProcedure" = type { %"class.cvc5::internal::EnvObj", i32, %"class.cvc5::internal::DenseSet", i32, ptr, ptr, ptr, ptr, i32, %"class.cvc5::internal::theory::arith::linear::RaiseConflict", ptr, %"class.cvc5::internal::theory::arith::linear::TempVarMalloc", i32, %"class.cvc5::internal::Rational", %"class.cvc5::internal::Rational", %"class.cvc5::internal::Rational", i64 }
%"class.cvc5::internal::EnvObj" = type { ptr, ptr }
%"class.cvc5::internal::DenseSet" = type { %"class.cvc5::internal::DenseMap" }
%"class.cvc5::internal::DenseMap" = type { %"class.std::vector", %"class.std::vector", %"class.std::vector.0" }
%"class.std::vector.0" = type { %"struct.std::_Bvector_base" }
%"struct.std::_Bvector_base" = type { %"struct.std::_Bvector_base<std::allocator<bool>>::_Bvector_impl" }
%"struct.std::_Bvector_base<std::allocator<bool>>::_Bvector_impl" = type { %"struct.std::_Bvector_base<std::allocator<bool>>::_Bvector_impl_data" }
%"struct.std::_Bvector_base<std::allocator<bool>>::_Bvector_impl_data" = type { %"struct.std::_Bit_iterator", %"struct.std::_Bit_iterator", ptr }
%"struct.std::_Bit_iterator" = type { %"struct.std::_Bit_iterator_base.base", [4 x i8] }
%"struct.std::_Bit_iterator_base.base" = type <{ ptr, i32 }>
%"class.cvc5::internal::Rational" = type { %class.__gmp_expr }
%class.__gmp_expr = type { [1 x %struct.__mpq_struct] }
%struct.__mpq_struct = type { %struct.__mpz_struct, %struct.__mpz_struct }
%struct.__mpz_struct = type { i32, i32, ptr }
%"class.cvc5::internal::DenseMultiset" = type { %"class.cvc5::internal::DenseMap.4" }
%"class.cvc5::internal::DenseMap.5" = type { %"class.std::vector", %"class.std::vector", %"class.std::vector.6" }
%"class.std::vector.6" = type { %"struct.std::_Vector_base.7" }
%"struct.std::_Vector_base.7" = type { %"struct.std::_Vector_base<const cvc5::internal::Rational *, std::allocator<const cvc5::internal::Rational *>>::_Vector_impl" }
%"struct.std::_Vector_base<const cvc5::internal::Rational *, std::allocator<const cvc5::internal::Rational *>>::_Vector_impl" = type { %"struct.std::_Vector_base<const cvc5::internal::Rational *, std::allocator<const cvc5::internal::Rational *>>::_Vector_impl_data" }
%"struct.std::_Vector_base<const cvc5::internal::Rational *, std::allocator<const cvc5::internal::Rational *>>::_Vector_impl_data" = type { ptr, ptr, ptr }
%"class.cvc5::internal::DenseMap.4" = type { %"class.std::vector", %"class.std::vector", %"class.std::vector" }
%"class.std::vector" = type { %"struct.std::_Vector_base" }
%"struct.std::_Vector_base" = type { %"struct.std::_Vector_base<unsigned int, std::allocator<unsigned int>>::_Vector_impl" }
%"struct.std::_Vector_base<unsigned int, std::allocator<unsigned int>>::_Vector_impl" = type { %"struct.std::_Vector_base<unsigned int, std::allocator<unsigned int>>::_Vector_impl_data" }
%"struct.std::_Vector_base<unsigned int, std::allocator<unsigned int>>::_Vector_impl_data" = type { ptr, ptr, ptr }
%"class.cvc5::internal::theory::arith::linear::FCSimplexDecisionProcedure::Statistics" = type { %"class.cvc5::internal::TimerStat", %"class.cvc5::internal::IntStat", %"class.cvc5::internal::IntStat", %"class.cvc5::internal::IntStat", %"class.cvc5::internal::IntStat", %"class.cvc5::internal::TimerStat", %"class.cvc5::internal::TimerStat", %"class.cvc5::internal::TimerStat", %"class.cvc5::internal::TimerStat", %"class.cvc5::internal::ReferenceStat" }
%"class.cvc5::internal::IntStat" = type { %"class.cvc5::internal::ValueStat" }
%"class.cvc5::internal::ValueStat" = type { ptr }
%"class.cvc5::internal::TimerStat" = type { ptr }
%"class.cvc5::internal::ReferenceStat" = type { ptr }

; Function Attrs: mustprogress uwtable
define hidden noundef i32 @_ZN4cvc58internal6theory5arith6linear26FCSimplexDecisionProcedure15focusDownToJustEj(ptr noundef nonnull align 8 dereferenceable(648) %this, i32 noundef %v) #4 align 2 {
entry:
  %this.addr = alloca ptr, align 8
  %v.addr = alloca i32, align 4
  store ptr %this, ptr %this.addr, align 8
  store i32 %v, ptr %v.addr, align 4
  %this1 = load ptr, ptr %this.addr, align 8
  %d_errorSet = getelementptr inbounds %"class.cvc5::internal::theory::arith::linear::SimplexDecisionProcedure", ptr %this1, i32 0, i32 7
  %0 = load ptr, ptr %d_errorSet, align 8
  %1 = load i32, ptr %v.addr, align 4
  call void @_ZN4cvc58internal6theory5arith6linear8ErrorSet15focusDownToJustEj(ptr noundef nonnull align 8 dereferenceable(240) %0, i32 noundef %1)
  %d_focusSize = getelementptr inbounds %"class.cvc5::internal::theory::arith::linear::FCSimplexDecisionProcedure", ptr %this1, i32 0, i32 2
  store i32 1, ptr %d_focusSize, align 8
  %d_statistics = getelementptr inbounds %"class.cvc5::internal::theory::arith::linear::FCSimplexDecisionProcedure", ptr %this1, i32 0, i32 10
  %d_fcFocusConstructionTimer = getelementptr inbounds %"class.cvc5::internal::theory::arith::linear::FCSimplexDecisionProcedure::Statistics", ptr %d_statistics, i32 0, i32 6
  %d_focusErrorVar = getelementptr inbounds %"class.cvc5::internal::theory::arith::linear::FCSimplexDecisionProcedure", ptr %this1, i32 0, i32 3
  %2 = load i32, ptr %d_focusErrorVar, align 4
  call void @_ZN4cvc58internal6theory5arith6linear24SimplexDecisionProcedure28tearDownInfeasiblityFunctionERNS0_9TimerStatEj(ptr noundef nonnull align 8 dereferenceable(304) %this1, ptr noundef nonnull align 8 dereferenceable(8) %d_fcFocusConstructionTimer, i32 noundef %2)
  %d_statistics2 = getelementptr inbounds %"class.cvc5::internal::theory::arith::linear::FCSimplexDecisionProcedure", ptr %this1, i32 0, i32 10
  %d_fcFocusConstructionTimer3 = getelementptr inbounds %"class.cvc5::internal::theory::arith::linear::FCSimplexDecisionProcedure::Statistics", ptr %d_statistics2, i32 0, i32 6
  %call = call noundef i32 @_ZN4cvc58internal6theory5arith6linear24SimplexDecisionProcedure29constructInfeasiblityFunctionERNS0_9TimerStatE(ptr noundef nonnull align 8 dereferenceable(304) %this1, ptr noundef nonnull align 8 dereferenceable(8) %d_fcFocusConstructionTimer3)
  %d_focusErrorVar4 = getelementptr inbounds %"class.cvc5::internal::theory::arith::linear::FCSimplexDecisionProcedure", ptr %this1, i32 0, i32 3
  store i32 %call, ptr %d_focusErrorVar4, align 4
  ret i32 3
}