; Function Attrs: mustprogress uwtable
define hidden noundef i32 @_ZN4cvc58internal6theory5arith6linear26FCSimplexDecisionProcedure15focusDownToJustEj(ptr noundef nonnull align 8 dereferenceable(648) %this, i32 noundef %v) local_unnamed_addr #3 align 2 {
entry:
  %d_errorSet = getelementptr inbounds i8, ptr %this, i64 144
  %0 = load ptr, ptr %d_errorSet, align 8
  tail call void @_ZN4cvc58internal6theory5arith6linear8ErrorSet15focusDownToJustEj(ptr noundef nonnull align 8 dereferenceable(240) %0, i32 noundef %v)
  %d_focusSize = getelementptr inbounds i8, ptr %this, i64 376
  store i32 1, ptr %d_focusSize, align 8
  %d_fcFocusConstructionTimer = getelementptr inbounds i8, ptr %this, i64 616
  %d_focusErrorVar = getelementptr inbounds i8, ptr %this, i64 380
  %1 = load i32, ptr %d_focusErrorVar, align 4
  tail call void @_ZN4cvc58internal6theory5arith6linear24SimplexDecisionProcedure28tearDownInfeasiblityFunctionERNS0_9TimerStatEj(ptr noundef nonnull align 8 dereferenceable(304) %this, ptr noundef nonnull align 8 dereferenceable(8) %d_fcFocusConstructionTimer, i32 noundef %1)
  %call = tail call noundef i32 @_ZN4cvc58internal6theory5arith6linear24SimplexDecisionProcedure29constructInfeasiblityFunctionERNS0_9TimerStatE(ptr noundef nonnull align 8 dereferenceable(304) %this, ptr noundef nonnull align 8 dereferenceable(8) %d_fcFocusConstructionTimer)
  store i32 %call, ptr %d_focusErrorVar, align 4
  ret i32 3
}